target datalayout = "e-m:e-p270:32:32-p271:32:32-p272:64:64-i64:64-i128:128-f80:128-n8:16:32:64-S128"
target triple = "x86_64-pc-linux-gnu"

%"class.google::protobuf::MessageLite" = type { ptr, %"class.google::protobuf::internal::InternalMetadata" }
%"class.google::protobuf::internal::InternalMetadata" = type { ptr }
%"class.google::protobuf::internal::HasBits" = type { [1 x i32] }
%"class.google::protobuf::internal::CachedSize" = type { %"struct.std::atomic" }
%"struct.std::atomic" = type { %"struct.std::__atomic_base" }
%"struct.std::__atomic_base" = type { i32 }
%"struct.google::protobuf::internal::ArenaStringPtr" = type { ptr }
%"struct.google::protobuf::internal::InternalMetadata::Container" = type { %"struct.google::protobuf::internal::InternalMetadata::ContainerBase", %"class.std::__cxx11::basic_string" }
%"struct.google::protobuf::internal::InternalMetadata::ContainerBase" = type { ptr }
%"class.std::__cxx11::basic_string" = type { %"struct.std::__cxx11::basic_string<char>::_Alloc_hider", i64, %union.anon }
%"struct.std::__cxx11::basic_string<char>::_Alloc_hider" = type { ptr }
%union.anon = type { i64, [8 x i8] }
%"class.i18n::phonenumbers::PhoneNumberDesc" = type { %"class.google::protobuf::MessageLite", %"class.google::protobuf::internal::HasBits", %"class.google::protobuf::internal::CachedSize", %"class.google::protobuf::RepeatedField", %"class.google::protobuf::RepeatedField", %"struct.google::protobuf::internal::ArenaStringPtr", %"struct.google::protobuf::internal::ArenaStringPtr" }
%"class.google::protobuf::RepeatedField" = type { i32, i32, ptr }

; Function Attrs: mustprogress nounwind uwtable
define linkonce_odr dso_local noundef i32 @_ZN6google8protobuf4Bits16Log2FloorNonZeroEj(i32 noundef %0) #5 comdat align 2 {
  %2 = alloca i32, align 4
  store i32 %0, ptr %2, align 4
  %3 = load i32, ptr %2, align 4
  %4 = call i32 @llvm.ctlz.i32(i32 %3, i1 true)
  %5 = xor i32 31, %4
  ret i32 %5
}

; Function Attrs: noreturn nounwind uwtable
define linkonce_odr hidden void @__clang_call_terminate(ptr noundef %0) #7 comdat {
  %2 = call ptr @__cxa_begin_catch(ptr %0) #3
  call void @_ZSt9terminatev() #15
  unreachable
}

; Function Attrs: mustprogress nounwind uwtable
define linkonce_odr dso_local noundef i32 @_ZStanSt12memory_orderSt23__memory_order_modifier(i32 noundef %0, i32 noundef %1) #5 comdat {
  %3 = alloca i32, align 4
  %4 = alloca i32, align 4
  store i32 %0, ptr %3, align 4
  store i32 %1, ptr %4, align 4
  %5 = load i32, ptr %3, align 4
  %6 = load i32, ptr %4, align 4
  %7 = and i32 %5, %6
  ret i32 %7
}

; Function Attrs: mustprogress uwtable
define linkonce_odr dso_local noundef i64 @_ZN6google8protobuf2io17CodedOutputStream12VarintSize32Ej(i32 noundef %0) #4 comdat align 2 {
  %2 = alloca i32, align 4
  %3 = alloca i32, align 4
  store i32 %0, ptr %2, align 4
  %4 = load i32, ptr %2, align 4
  %5 = or i32 %4, 1
  %6 = call noundef i32 @_ZN6google8protobuf4Bits16Log2FloorNonZeroEj(i32 noundef %5)
  store i32 %6, ptr %3, align 4
  %7 = load i32, ptr %3, align 4
  %8 = mul i32 %7, 9
  %9 = add i32 %8, 73
  %10 = udiv i32 %9, 64
  %11 = zext i32 %10 to i64
  ret i64 %11
}

; Function Attrs: mustprogress nounwind uwtable
define linkonce_odr dso_local void @_ZN6google8protobuf8internal10CachedSize3SetEi(ptr noundef nonnull align 4 dereferenceable(4) %0, i32 noundef %1) #5 comdat align 2 personality ptr @__gxx_personality_v0 {
  %3 = alloca ptr, align 8
  %4 = alloca i32, align 4
  %5 = alloca i32, align 4
  %6 = alloca i32, align 4
  %7 = alloca i32, align 4
  %8 = alloca ptr, align 8
  %9 = alloca i32, align 4
  store ptr %0, ptr %8, align 8
  store i32 %1, ptr %9, align 4
  %10 = load ptr, ptr %8, align 8
  %11 = getelementptr inbounds %"class.google::protobuf::internal::CachedSize", ptr %10, i32 0, i32 0
  %12 = load i32, ptr %9, align 4
  store ptr %11, ptr %3, align 8
  store i32 %12, ptr %4, align 4
  store i32 0, ptr %5, align 4
  %13 = load ptr, ptr %3, align 8
  %14 = load i32, ptr %5, align 4
  %15 = invoke noundef i32 @_ZStanSt12memory_orderSt23__memory_order_modifier(i32 noundef %14, i32 noundef 65535)
          to label %16 unwind label %25

16:                                               ; preds = %2
  store i32 %15, ptr %6, align 4
  %17 = load i32, ptr %5, align 4
  %18 = load i32, ptr %4, align 4
  store i32 %18, ptr %7, align 4
  switch i32 %17, label %19 [
    i32 3, label %21
    i32 5, label %23
  ]

19:                                               ; preds = %16
  %20 = load i32, ptr %7, align 4
  store atomic i32 %20, ptr %13 monotonic, align 4
  br label %28

21:                                               ; preds = %16
  %22 = load i32, ptr %7, align 4
  store atomic i32 %22, ptr %13 release, align 4
  br label %28

23:                                               ; preds = %16
  %24 = load i32, ptr %7, align 4
  store atomic i32 %24, ptr %13 seq_cst, align 4
  br label %28

25:                                               ; preds = %2
  %26 = landingpad { ptr, i32 }
          catch ptr null
  %27 = extractvalue { ptr, i32 } %26, 0
  call void @__clang_call_terminate(ptr %27) #15
  unreachable

28:                                               ; preds = %23, %21, %19
  ret void
}

; Function Attrs: mustprogress uwtable
define linkonce_odr dso_local noundef i64 @_ZN6google8protobuf8internal14WireFormatLite19LengthDelimitedSizeEm(i64 noundef %0) #4 comdat align 2 {
  %2 = alloca i64, align 8
  store i64 %0, ptr %2, align 8
  %3 = load i64, ptr %2, align 8
  %4 = load i64, ptr %2, align 8
  %5 = trunc i64 %4 to i32
  %6 = call noundef i64 @_ZN6google8protobuf2io17CodedOutputStream12VarintSize32Ej(i32 noundef %5)
  %7 = add i64 %3, %6
  ret i64 %7
}

; Function Attrs: mustprogress nounwind uwtable
define linkonce_odr dso_local noundef nonnull align 8 dereferenceable(32) ptr @_ZNK6google8protobuf8internal14ArenaStringPtr3GetB5cxx11Ev(ptr noundef nonnull align 8 dereferenceable(8) %0) #5 comdat align 2 {
  %2 = alloca ptr, align 8
  store ptr %0, ptr %2, align 8
  %3 = load ptr, ptr %2, align 8
  %4 = getelementptr inbounds %"struct.google::protobuf::internal::ArenaStringPtr", ptr %3, i32 0, i32 0
  %5 = load ptr, ptr %4, align 8
  ret ptr %5
}

; Function Attrs: mustprogress uwtable
define dso_local void @_ZNK4i18n12phonenumbers15PhoneNumberDesc13SetCachedSizeEi(ptr noundef nonnull align 8 dereferenceable(72) %0, i32 noundef %1) #4 align 2 {
  %3 = alloca ptr, align 8
  %4 = alloca i32, align 4
  store ptr %0, ptr %3, align 8
  store i32 %1, ptr %4, align 4
  %5 = load ptr, ptr %3, align 8
  %6 = getelementptr inbounds %"class.i18n::phonenumbers::PhoneNumberDesc", ptr %5, i32 0, i32 2
  %7 = load i32, ptr %4, align 4
  call void @_ZN6google8protobuf8internal10CachedSize3SetEi(ptr noundef nonnull align 4 dereferenceable(4) %6, i32 noundef %7)
  ret void
}

; Function Attrs: mustprogress nounwind uwtable
define linkonce_odr dso_local noundef i32 @_ZN6google8protobuf8internal12ToCachedSizeEm(i64 noundef %0) #5 comdat {
  %2 = alloca i64, align 8
  store i64 %0, ptr %2, align 8
  %3 = load i64, ptr %2, align 8
  %4 = trunc i64 %3 to i32
  ret i32 %4
}

; Function Attrs: mustprogress nounwind uwtable
define linkonce_odr dso_local noundef ptr @_ZNK6google8protobuf8internal16InternalMetadata8PtrValueINS2_9ContainerINSt7__cxx1112basic_stringIcSt11char_traitsIcESaIcEEEEEEEPT_v(ptr noundef nonnull align 8 dereferenceable(8) %0) #5 comdat align 2 {
  %2 = alloca ptr, align 8
  store ptr %0, ptr %2, align 8
  %3 = load ptr, ptr %2, align 8
  %4 = getelementptr inbounds %"class.google::protobuf::internal::InternalMetadata", ptr %3, i32 0, i32 0
  %5 = load ptr, ptr %4, align 8
  %6 = ptrtoint ptr %5 to i64
  %7 = and i64 %6, -2
  %8 = inttoptr i64 %7 to ptr
  ret ptr %8
}

; Function Attrs: mustprogress nounwind uwtable
define linkonce_odr dso_local noundef nonnull align 8 dereferenceable(32) ptr @_ZNK4i18n12phonenumbers15PhoneNumberDesc24_internal_example_numberB5cxx11Ev(ptr noundef nonnull align 8 dereferenceable(72) %0) #5 comdat align 2 {
  %2 = alloca ptr, align 8
  store ptr %0, ptr %2, align 8
  %3 = load ptr, ptr %2, align 8
  %4 = getelementptr inbounds %"class.i18n::phonenumbers::PhoneNumberDesc", ptr %3, i32 0, i32 6
  %5 = call noundef nonnull align 8 dereferenceable(32) ptr @_ZNK6google8protobuf8internal14ArenaStringPtr3GetB5cxx11Ev(ptr noundef nonnull align 8 dereferenceable(8) %4)
  ret ptr %5
}

; Function Attrs: mustprogress uwtable
define linkonce_odr dso_local noundef i64 @_ZN6google8protobuf8internal14WireFormatLite10StringSizeERKNSt7__cxx1112basic_stringIcSt11char_traitsIcESaIcEEE(ptr noundef nonnull align 8 dereferenceable(32) %0) #4 comdat align 2 {
  %2 = alloca ptr, align 8
  store ptr %0, ptr %2, align 8
  %3 = load ptr, ptr %2, align 8
  %4 = call noundef i64 @_ZNKSt7__cxx1112basic_stringIcSt11char_traitsIcESaIcEE4sizeEv(ptr noundef nonnull align 8 dereferenceable(32) %3) #3
  %5 = call noundef i64 @_ZN6google8protobuf8internal14WireFormatLite19LengthDelimitedSizeEm(i64 noundef %4)
  ret i64 %5
}

; Function Attrs: mustprogress nounwind uwtable
define linkonce_odr dso_local noundef nonnull align 8 dereferenceable(32) ptr @_ZNK4i18n12phonenumbers15PhoneNumberDesc33_internal_national_number_patternB5cxx11Ev(ptr noundef nonnull align 8 dereferenceable(72) %0) #5 comdat align 2 {
  %2 = alloca ptr, align 8
  store ptr %0, ptr %2, align 8
  %3 = load ptr, ptr %2, align 8
  %4 = getelementptr inbounds %"class.i18n::phonenumbers::PhoneNumberDesc", ptr %3, i32 0, i32 5
  %5 = call noundef nonnull align 8 dereferenceable(32) ptr @_ZNK6google8protobuf8internal14ArenaStringPtr3GetB5cxx11Ev(ptr noundef nonnull align 8 dereferenceable(8) %4)
  ret ptr %5
}

; Function Attrs: mustprogress uwtable
define linkonce_odr dso_local noundef i32 @_ZNK4i18n12phonenumbers15PhoneNumberDesc41_internal_possible_length_local_only_sizeEv(ptr noundef nonnull align 8 dereferenceable(72) %0) #4 comdat align 2 {
  %2 = alloca ptr, align 8
  store ptr %0, ptr %2, align 8
  %3 = load ptr, ptr %2, align 8
  %4 = getelementptr inbounds %"class.i18n::phonenumbers::PhoneNumberDesc", ptr %3, i32 0, i32 4
  %5 = call noundef i32 @_ZNK6google8protobuf13RepeatedFieldIiE4sizeEv(ptr noundef nonnull align 8 dereferenceable(16) %4)
  ret i32 %5
}

; Function Attrs: mustprogress nounwind uwtable
define linkonce_odr dso_local noundef i64 @_ZN6google8protobuf8internal11FromIntSizeEi(i32 noundef %0) #5 comdat {
  %2 = alloca i32, align 4
  store i32 %0, ptr %2, align 4
  %3 = load i32, ptr %2, align 4
  %4 = zext i32 %3 to i64
  ret i64 %4
}

; Function Attrs: mustprogress uwtable
define linkonce_odr dso_local noundef i32 @_ZNK4i18n12phonenumbers15PhoneNumberDesc30_internal_possible_length_sizeEv(ptr noundef nonnull align 8 dereferenceable(72) %0) #4 comdat align 2 {
  %2 = alloca ptr, align 8
  store ptr %0, ptr %2, align 8
  %3 = load ptr, ptr %2, align 8
  %4 = getelementptr inbounds %"class.i18n::phonenumbers::PhoneNumberDesc", ptr %3, i32 0, i32 3
  %5 = call noundef i32 @_ZNK6google8protobuf13RepeatedFieldIiE4sizeEv(ptr noundef nonnull align 8 dereferenceable(16) %4)
  ret i32 %5
}

; Function Attrs: mustprogress uwtable
define dso_local noundef i64 @_ZNK4i18n12phonenumbers15PhoneNumberDesc12ByteSizeLongEv(ptr noundef nonnull align 8 dereferenceable(72) %0) unnamed_addr #4 align 2 {
  %2 = alloca ptr, align 8
  %3 = alloca ptr, align 8
  %4 = alloca ptr, align 8
  %5 = alloca ptr, align 8
  %6 = alloca ptr, align 8
  %7 = alloca ptr, align 8
  %8 = alloca ptr, align 8
  %9 = alloca ptr, align 8
  %10 = alloca i32, align 4
  %11 = alloca ptr, align 8
  %12 = alloca i64, align 8
  %13 = alloca i32, align 4
  %14 = alloca i64, align 8
  %15 = alloca i64, align 8
  %16 = alloca i32, align 4
  store ptr %0, ptr %11, align 8
  %17 = load ptr, ptr %11, align 8
  store i64 0, ptr %12, align 8
  store i32 0, ptr %13, align 4
  %18 = getelementptr inbounds %"class.i18n::phonenumbers::PhoneNumberDesc", ptr %17, i32 0, i32 3
  %19 = call noundef i64 @_ZN6google8protobuf8internal14WireFormatLite9Int32SizeERKNS0_13RepeatedFieldIiEE(ptr noundef nonnull align 8 dereferenceable(16) %18)
  store i64 %19, ptr %14, align 8
  %20 = call noundef i32 @_ZNK4i18n12phonenumbers15PhoneNumberDesc30_internal_possible_length_sizeEv(ptr noundef nonnull align 8 dereferenceable(72) %17)
  %21 = call noundef i64 @_ZN6google8protobuf8internal11FromIntSizeEi(i32 noundef %20)
  %22 = mul i64 1, %21
  %23 = load i64, ptr %12, align 8
  %24 = add i64 %23, %22
  store i64 %24, ptr %12, align 8
  %25 = load i64, ptr %14, align 8
  %26 = load i64, ptr %12, align 8
  %27 = add i64 %26, %25
  store i64 %27, ptr %12, align 8
  %28 = getelementptr inbounds %"class.i18n::phonenumbers::PhoneNumberDesc", ptr %17, i32 0, i32 4
  %29 = call noundef i64 @_ZN6google8protobuf8internal14WireFormatLite9Int32SizeERKNS0_13RepeatedFieldIiEE(ptr noundef nonnull align 8 dereferenceable(16) %28)
  store i64 %29, ptr %15, align 8
  %30 = call noundef i32 @_ZNK4i18n12phonenumbers15PhoneNumberDesc41_internal_possible_length_local_only_sizeEv(ptr noundef nonnull align 8 dereferenceable(72) %17)
  %31 = call noundef i64 @_ZN6google8protobuf8internal11FromIntSizeEi(i32 noundef %30)
  %32 = mul i64 1, %31
  %33 = load i64, ptr %12, align 8
  %34 = add i64 %33, %32
  store i64 %34, ptr %12, align 8
  %35 = load i64, ptr %15, align 8
  %36 = load i64, ptr %12, align 8
  %37 = add i64 %36, %35
  store i64 %37, ptr %12, align 8
  %38 = getelementptr inbounds %"class.i18n::phonenumbers::PhoneNumberDesc", ptr %17, i32 0, i32 1
  store ptr %38, ptr %9, align 8
  store i32 0, ptr %10, align 4
  %39 = load ptr, ptr %9, align 8
  %40 = load i32, ptr %10, align 4
  %41 = sext i32 %40 to i64
  %42 = getelementptr inbounds [1 x i32], ptr %39, i64 0, i64 %41
  %43 = load i32, ptr %42, align 4
  store i32 %43, ptr %13, align 4
  %44 = load i32, ptr %13, align 4
  %45 = and i32 %44, 3
  %46 = icmp ne i32 %45, 0
  br i1 %46, label %47, label %68

47:                                               ; preds = %1
  %48 = load i32, ptr %13, align 4
  %49 = and i32 %48, 1
  %50 = icmp ne i32 %49, 0
  br i1 %50, label %51, label %57

51:                                               ; preds = %47
  %52 = call noundef nonnull align 8 dereferenceable(32) ptr @_ZNK4i18n12phonenumbers15PhoneNumberDesc33_internal_national_number_patternB5cxx11Ev(ptr noundef nonnull align 8 dereferenceable(72) %17)
  %53 = call noundef i64 @_ZN6google8protobuf8internal14WireFormatLite10StringSizeERKNSt7__cxx1112basic_stringIcSt11char_traitsIcESaIcEEE(ptr noundef nonnull align 8 dereferenceable(32) %52)
  %54 = add i64 1, %53
  %55 = load i64, ptr %12, align 8
  %56 = add i64 %55, %54
  store i64 %56, ptr %12, align 8
  br label %57

57:                                               ; preds = %51, %47
  %58 = load i32, ptr %13, align 4
  %59 = and i32 %58, 2
  %60 = icmp ne i32 %59, 0
  br i1 %60, label %61, label %67

61:                                               ; preds = %57
  %62 = call noundef nonnull align 8 dereferenceable(32) ptr @_ZNK4i18n12phonenumbers15PhoneNumberDesc24_internal_example_numberB5cxx11Ev(ptr noundef nonnull align 8 dereferenceable(72) %17)
  %63 = call noundef i64 @_ZN6google8protobuf8internal14WireFormatLite10StringSizeERKNSt7__cxx1112basic_stringIcSt11char_traitsIcESaIcEEE(ptr noundef nonnull align 8 dereferenceable(32) %62)
  %64 = add i64 1, %63
  %65 = load i64, ptr %12, align 8
  %66 = add i64 %65, %64
  store i64 %66, ptr %12, align 8
  br label %67

67:                                               ; preds = %61, %57
  br label %68

68:                                               ; preds = %67, %1
  %69 = getelementptr inbounds %"class.google::protobuf::MessageLite", ptr %17, i32 0, i32 1
  store ptr %69, ptr %8, align 8
  %70 = load ptr, ptr %8, align 8
  store ptr %70, ptr %2, align 8
  %71 = load ptr, ptr %2, align 8
  %72 = load ptr, ptr %71, align 8
  %73 = ptrtoint ptr %72 to i64
  %74 = and i64 %73, 1
  %75 = trunc i64 %74 to i32
  %76 = icmp eq i32 %75, 1
  br i1 %76, label %77, label %98

77:                                               ; preds = %68
  %78 = getelementptr inbounds %"class.google::protobuf::MessageLite", ptr %17, i32 0, i32 1
  store ptr %78, ptr %6, align 8
  store ptr @_ZN6google8protobuf8internal14GetEmptyStringB5cxx11Ev, ptr %7, align 8
  %79 = load ptr, ptr %6, align 8
  store ptr %79, ptr %4, align 8
  %80 = load ptr, ptr %4, align 8
  store ptr %80, ptr %3, align 8
  %81 = load ptr, ptr %3, align 8
  %82 = load ptr, ptr %81, align 8
  %83 = ptrtoint ptr %82 to i64
  %84 = and i64 %83, 1
  %85 = trunc i64 %84 to i32
  %86 = icmp eq i32 %85, 1
  br i1 %86, label %87, label %90

87:                                               ; preds = %77
  %88 = call noundef ptr @_ZNK6google8protobuf8internal16InternalMetadata8PtrValueINS2_9ContainerINSt7__cxx1112basic_stringIcSt11char_traitsIcESaIcEEEEEEEPT_v(ptr noundef nonnull align 8 dereferenceable(8) %79)
  %89 = getelementptr inbounds %"struct.google::protobuf::internal::InternalMetadata::Container", ptr %88, i32 0, i32 1
  store ptr %89, ptr %5, align 8
  br label %93

90:                                               ; preds = %77
  %91 = load ptr, ptr %7, align 8
  %92 = call noundef nonnull align 8 dereferenceable(32) ptr %91()
  store ptr %92, ptr %5, align 8
  br label %93

93:                                               ; preds = %90, %87
  %94 = load ptr, ptr %5, align 8
  %95 = call noundef i64 @_ZNKSt7__cxx1112basic_stringIcSt11char_traitsIcESaIcEE4sizeEv(ptr noundef nonnull align 8 dereferenceable(32) %94) #3
  %96 = load i64, ptr %12, align 8
  %97 = add i64 %96, %95
  store i64 %97, ptr %12, align 8
  br label %98

98:                                               ; preds = %93, %68
  %99 = load i64, ptr %12, align 8
  %100 = call noundef i32 @_ZN6google8protobuf8internal12ToCachedSizeEm(i64 noundef %99)
  store i32 %100, ptr %16, align 4
  %101 = load i32, ptr %16, align 4
  call void @_ZNK4i18n12phonenumbers15PhoneNumberDesc13SetCachedSizeEi(ptr noundef nonnull align 8 dereferenceable(72) %17, i32 noundef %101)
  %102 = load i64, ptr %12, align 8
  ret i64 %102
}