; Function Attrs: mustprogress uwtable
define dso_local noundef i64 @_ZNK4i18n12phonenumbers15PhoneNumberDesc12ByteSizeLongEv(ptr noundef nonnull align 8 dereferenceable(72) %0) unnamed_addr #3 align 2 personality ptr @__gxx_personality_v0 {
  %2 = getelementptr inbounds i8, ptr %0, i64 24
  %3 = tail call noundef i64 @_ZN6google8protobuf8internal14WireFormatLite9Int32SizeERKNS0_13RepeatedFieldIiEE(ptr noundef nonnull align 8 dereferenceable(16) %2)
  %4 = tail call noundef i32 @_ZNK6google8protobuf13RepeatedFieldIiE4sizeEv(ptr noundef nonnull align 8 dereferenceable(16) %2)
  %5 = zext i32 %4 to i64
  %6 = add i64 %3, %5
  %7 = getelementptr inbounds i8, ptr %0, i64 40
  %8 = tail call noundef i64 @_ZN6google8protobuf8internal14WireFormatLite9Int32SizeERKNS0_13RepeatedFieldIiEE(ptr noundef nonnull align 8 dereferenceable(16) %7)
  %9 = tail call noundef i32 @_ZNK6google8protobuf13RepeatedFieldIiE4sizeEv(ptr noundef nonnull align 8 dereferenceable(16) %7)
  %10 = zext i32 %9 to i64
  %11 = add i64 %6, %8
  %12 = add i64 %11, %10
  %13 = getelementptr inbounds i8, ptr %0, i64 16
  %14 = load i32, ptr %13, align 8
  %15 = and i32 %14, 3
  %.not = icmp eq i32 %15, 0
  br i1 %.not, label %50, label %16

16:                                               ; preds = %1
  %17 = and i32 %14, 1
  %.not25 = icmp eq i32 %17, 0
  br i1 %.not25, label %33, label %18

18:                                               ; preds = %16
  %19 = getelementptr inbounds i8, ptr %0, i64 56
  %20 = load ptr, ptr %19, align 8
  %21 = tail call noundef i64 @_ZNKSt7__cxx1112basic_stringIcSt11char_traitsIcESaIcEE4sizeEv(ptr noundef nonnull align 8 dereferenceable(32) %20) #21
  %22 = trunc i64 %21 to i32
  %23 = or i32 %22, 1
  %24 = tail call i32 @llvm.ctlz.i32(i32 %23, i1 true), !range !9
  %25 = xor i32 %24, 31
  %26 = mul nuw nsw i32 %25, 9
  %27 = add nuw nsw i32 %26, 73
  %28 = lshr i32 %27, 6
  %29 = zext nneg i32 %28 to i64
  %30 = add i64 %12, 1
  %31 = add i64 %30, %21
  %32 = add i64 %31, %29
  br label %33

33:                                               ; preds = %18, %16
  %.024 = phi i64 [ %32, %18 ], [ %12, %16 ]
  %34 = and i32 %14, 2
  %.not26 = icmp eq i32 %34, 0
  br i1 %.not26, label %50, label %35

35:                                               ; preds = %33
  %36 = getelementptr inbounds i8, ptr %0, i64 64
  %37 = load ptr, ptr %36, align 8
  %38 = tail call noundef i64 @_ZNKSt7__cxx1112basic_stringIcSt11char_traitsIcESaIcEE4sizeEv(ptr noundef nonnull align 8 dereferenceable(32) %37) #21
  %39 = trunc i64 %38 to i32
  %40 = or i32 %39, 1
  %41 = tail call i32 @llvm.ctlz.i32(i32 %40, i1 true), !range !9
  %42 = xor i32 %41, 31
  %43 = mul nuw nsw i32 %42, 9
  %44 = add nuw nsw i32 %43, 73
  %45 = lshr i32 %44, 6
  %46 = zext nneg i32 %45 to i64
  %47 = add i64 %.024, 1
  %48 = add i64 %47, %38
  %49 = add i64 %48, %46
  br label %50

50:                                               ; preds = %33, %35, %1
  %.1 = phi i64 [ %49, %35 ], [ %.024, %33 ], [ %12, %1 ]
  %51 = getelementptr inbounds i8, ptr %0, i64 8
  %52 = load ptr, ptr %51, align 8
  %53 = ptrtoint ptr %52 to i64
  %54 = and i64 %53, 1
  %.not27 = icmp eq i64 %54, 0
  br i1 %.not27, label %61, label %55

55:                                               ; preds = %50
  %56 = and i64 %53, -2
  %57 = inttoptr i64 %56 to ptr
  %58 = getelementptr inbounds i8, ptr %57, i64 8
  %59 = tail call noundef i64 @_ZNKSt7__cxx1112basic_stringIcSt11char_traitsIcESaIcEE4sizeEv(ptr noundef nonnull align 8 dereferenceable(32) %58) #21
  %60 = add i64 %59, %.1
  br label %61

61:                                               ; preds = %55, %50
  %.2 = phi i64 [ %60, %55 ], [ %.1, %50 ]
  %62 = trunc i64 %.2 to i32
  %63 = getelementptr inbounds i8, ptr %0, i64 20
  store atomic i32 %62, ptr %63 monotonic, align 4
  ret i64 %.2
}